; Function Attrs: nounwind uwtable
define dso_local void @replyToBlockedClientTimedOut(ptr noundef %0) local_unnamed_addr #0 {
  %2 = getelementptr inbounds nuw i8, ptr %0, i64 480
  %3 = load i32, ptr %2, align 8, !tbaa !5
  switch i32 %3, label %42 [
    i32 9, label %4
    i32 1, label %6
    i32 6, label %6
    i32 5, label %6
    i32 2, label %27
    i32 3, label %32
    i32 4, label %41
  ]

4:                                                ; preds = %1
  %5 = load ptr, ptr @shared, align 8, !tbaa !82
  tail call void @addReply(ptr noundef nonnull %0, ptr noundef %5) #5
  br label %updateStatsOnUnblock.exit

6:                                                ; preds = %1, %1, %1
  tail call void @addReplyNullArray(ptr noundef nonnull %0) #5
  %7 = getelementptr inbounds nuw i8, ptr %0, i64 224
  %8 = load i64, ptr %7, align 8, !tbaa !57
  %9 = getelementptr inbounds nuw i8, ptr %0, i64 136
  %10 = load ptr, ptr %9, align 8, !tbaa !58
  %11 = getelementptr inbounds nuw i8, ptr %10, i64 176
  %12 = load i64, ptr %11, align 8, !tbaa !59
  %13 = add nsw i64 %12, %8
  store i64 %13, ptr %11, align 8, !tbaa !59
  %14 = getelementptr inbounds nuw i8, ptr %10, i64 184
  %15 = load i64, ptr %14, align 8, !tbaa !65
  %16 = add nsw i64 %15, 1
  store i64 %16, ptr %14, align 8, !tbaa !65
  %17 = load i64, ptr getelementptr inbounds nuw (i8, ptr @server, i64 2472), align 8, !tbaa !66
  %18 = add nsw i64 %17, 1
  store i64 %18, ptr getelementptr inbounds nuw (i8, ptr @server, i64 2472), align 8, !tbaa !66
  %19 = load i32, ptr getelementptr inbounds nuw (i8, ptr @server, i64 6488), align 8, !tbaa !68
  %.not16.i = icmp eq i32 %19, 0
  br i1 %.not16.i, label %23, label %20

20:                                               ; preds = %6
  %21 = getelementptr inbounds nuw i8, ptr %10, i64 224
  %22 = mul nsw i64 %8, 1000
  tail call void @updateCommandLatencyHistogram(ptr noundef nonnull %21, i64 noundef %22) #5
  %.pre.i = load ptr, ptr %9, align 8, !tbaa !58
  br label %23

23:                                               ; preds = %20, %6
  %24 = phi ptr [ %.pre.i, %20 ], [ %10, %6 ]
  tail call void @slowlogPushCurrentCommand(ptr noundef nonnull %0, ptr noundef %24, i64 noundef %8) #5
  store i64 0, ptr %7, align 8, !tbaa !57
  %25 = load i64, ptr getelementptr inbounds nuw (i8, ptr @server, i64 8064), align 8, !tbaa !69
  %or.cond = icmp sgt i64 %25, -1
  br i1 %or.cond, label %updateStatsOnUnblock.exit, label %26

26:                                               ; preds = %23
  tail call void @latencyAddSample(ptr noundef nonnull @.str.2, i64 noundef 0) #5
  br label %updateStatsOnUnblock.exit

27:                                               ; preds = %1
  %28 = getelementptr inbounds nuw i8, ptr %0, i64 520
  %29 = load i64, ptr %28, align 8, !tbaa !31
  %30 = tail call i32 @replicationCountAcksByOffset(i64 noundef %29) #5
  %31 = sext i32 %30 to i64
  tail call void @addReplyLongLong(ptr noundef nonnull %0, i64 noundef %31) #5
  br label %updateStatsOnUnblock.exit

32:                                               ; preds = %1
  tail call void @addReplyArrayLen(ptr noundef nonnull %0, i64 noundef 2) #5
  %33 = load i64, ptr getelementptr inbounds nuw (i8, ptr @server, i64 7088), align 8, !tbaa !84
  %34 = getelementptr inbounds nuw i8, ptr %0, i64 520
  %35 = load i64, ptr %34, align 8, !tbaa !31
  %36 = icmp sge i64 %33, %35
  %37 = zext i1 %36 to i64
  tail call void @addReplyLongLong(ptr noundef nonnull %0, i64 noundef %37) #5
  %38 = load i64, ptr %34, align 8, !tbaa !31
  %39 = tail call i32 @replicationCountAOFAcksByOffset(i64 noundef %38) #5
  %40 = sext i32 %39 to i64
  tail call void @addReplyLongLong(ptr noundef nonnull %0, i64 noundef %40) #5
  br label %updateStatsOnUnblock.exit

41:                                               ; preds = %1
  tail call void @moduleBlockedClientTimedOut(ptr noundef nonnull %0) #5
  br label %updateStatsOnUnblock.exit

42:                                               ; preds = %1
  tail call void (ptr, i32, ptr, ...) @_serverPanic(ptr noundef nonnull @.str.1, i32 noundef 228, ptr noundef nonnull @.str.5) #5
  tail call void @abort() #6
  unreachable

updateStatsOnUnblock.exit:                        ; preds = %26, %23, %32, %41, %27, %4
  ret void
}